; Function Attrs: mustprogress uwtable
define void @_ZN6icu_776number4impl15DecimalQuantity11copyBcdFromERKS2_(ptr noundef nonnull align 8 captures(none) dereferenceable(66) initializes((12, 20), (21, 22), (24, 36), (44, 48)) %0, ptr noundef nonnull readonly align 8 captures(none) dereferenceable(66) %1) local_unnamed_addr #1 align 2 {
  %3 = getelementptr inbounds nuw i8, ptr %0, i64 64
  %4 = load i8, ptr %3, align 8, !tbaa !22, !range !24, !noundef !25
  %5 = trunc nuw i8 %4 to i1
  br i1 %5, label %6, label %_ZN6icu_776number4impl15DecimalQuantity12setBcdToZeroEv.exit

6:                                                ; preds = %2
  %7 = getelementptr inbounds nuw i8, ptr %0, i64 48
  %8 = load ptr, ptr %7, align 8, !tbaa !26
  tail call void @uprv_free_77(ptr noundef %8)
  store i8 0, ptr %3, align 8, !tbaa !22
  br label %_ZN6icu_776number4impl15DecimalQuantity12setBcdToZeroEv.exit

_ZN6icu_776number4impl15DecimalQuantity12setBcdToZeroEv.exit: ; preds = %2, %6
  %9 = getelementptr inbounds nuw i8, ptr %0, i64 48
  store i64 0, ptr %9, align 8, !tbaa !26
  %10 = getelementptr inbounds nuw i8, ptr %0, i64 12
  store i32 0, ptr %10, align 4, !tbaa !27
  %11 = getelementptr inbounds nuw i8, ptr %0, i64 16
  store i32 0, ptr %11, align 8, !tbaa !28
  %12 = getelementptr inbounds nuw i8, ptr %0, i64 21
  store i8 0, ptr %12, align 1, !tbaa !29
  %13 = getelementptr inbounds nuw i8, ptr %0, i64 24
  store double 0.000000e+00, ptr %13, align 8, !tbaa !30
  %14 = getelementptr inbounds nuw i8, ptr %0, i64 32
  store i32 0, ptr %14, align 8, !tbaa !31
  %15 = getelementptr inbounds nuw i8, ptr %0, i64 44
  store i32 0, ptr %15, align 4, !tbaa !32
  %16 = getelementptr inbounds nuw i8, ptr %1, i64 64
  %17 = load i8, ptr %16, align 8, !tbaa !22, !range !24, !noundef !25
  %18 = trunc nuw i8 %17 to i1
  br i1 %18, label %19, label %32

19:                                               ; preds = %_ZN6icu_776number4impl15DecimalQuantity12setBcdToZeroEv.exit
  %20 = getelementptr inbounds nuw i8, ptr %1, i64 16
  %21 = load i32, ptr %20, align 8, !tbaa !28
  %22 = icmp eq i32 %21, 0
  br i1 %22, label %_ZN6icu_776number4impl15DecimalQuantity14ensureCapacityEi.exit, label %23

23:                                               ; preds = %19
  %24 = getelementptr inbounds nuw i8, ptr %0, i64 56
  %25 = sext i32 %21 to i64
  %26 = tail call noalias ptr @uprv_malloc_77(i64 noundef %25) #27
  store ptr %26, ptr %9, align 8, !tbaa !26
  store i32 %21, ptr %24, align 8, !tbaa !26
  tail call void @llvm.memset.p0.i64(ptr align 1 %26, i8 0, i64 %25, i1 false)
  store i8 1, ptr %3, align 8, !tbaa !22
  %.pre = load i32, ptr %20, align 8, !tbaa !28
  %27 = sext i32 %.pre to i64
  br label %_ZN6icu_776number4impl15DecimalQuantity14ensureCapacityEi.exit

_ZN6icu_776number4impl15DecimalQuantity14ensureCapacityEi.exit: ; preds = %19, %23
  %28 = phi i64 [ 0, %19 ], [ %27, %23 ]
  %29 = phi ptr [ null, %19 ], [ %26, %23 ]
  %30 = getelementptr inbounds nuw i8, ptr %1, i64 48
  %31 = load ptr, ptr %30, align 8, !tbaa !26
  tail call void @llvm.memcpy.p0.p0.i64(ptr align 1 %29, ptr align 1 %31, i64 %28, i1 false)
  br label %35

32:                                               ; preds = %_ZN6icu_776number4impl15DecimalQuantity12setBcdToZeroEv.exit
  %33 = getelementptr inbounds nuw i8, ptr %1, i64 48
  %34 = load i64, ptr %33, align 8, !tbaa !26
  store i64 %34, ptr %9, align 8, !tbaa !26
  br label %35

35:                                               ; preds = %32, %_ZN6icu_776number4impl15DecimalQuantity14ensureCapacityEi.exit
  ret void
}